target datalayout = "e-m:e-p270:32:32-p271:32:32-p272:64:64-i64:64-i128:128-f80:128-n8:16:32:64-S128"
target triple = "x86_64-pc-linux-gnu"

%"class.folly::Range" = type { ptr, ptr }
%"struct.folly::json::(anonymous namespace)::Input" = type <{ %"class.folly::Range", ptr, i32, i32, i32, [4 x i8] }>

@.str.52 = private unnamed_addr constant [19 x i8] c"index out of range\00", align 1

; Function Attrs: mustprogress nounwind uwtable
define linkonce_odr noundef nonnull align 1 dereferenceable(1) ptr @_ZN5folly5RangeIPKcE5frontEv(ptr noundef nonnull align 8 dereferenceable(16) %0) #3 comdat align 2 {
  %2 = alloca ptr, align 8
  store ptr %0, ptr %2, align 8, !tbaa !17
  %3 = load ptr, ptr %2, align 8
  %4 = getelementptr inbounds nuw %"class.folly::Range", ptr %3, i32 0, i32 0
  %5 = load ptr, ptr %4, align 8, !tbaa !24
  ret ptr %5
}

; Function Attrs: mustprogress nounwind uwtable
define linkonce_odr noundef zeroext i1 @_ZNK5folly5RangeIPKcE5emptyEv(ptr noundef nonnull align 8 dereferenceable(16) %0) #3 comdat align 2 {
  %2 = alloca ptr, align 8
  store ptr %0, ptr %2, align 8, !tbaa !17
  %3 = load ptr, ptr %2, align 8
  %4 = getelementptr inbounds nuw %"class.folly::Range", ptr %3, i32 0, i32 0
  %5 = load ptr, ptr %4, align 8, !tbaa !24
  %6 = getelementptr inbounds nuw %"class.folly::Range", ptr %3, i32 0, i32 1
  %7 = load ptr, ptr %6, align 8, !tbaa !26
  %8 = icmp eq ptr %5, %7
  ret i1 %8
}

; Function Attrs: alwaysinline mustprogress noreturn uwtable
define linkonce_odr hidden void @_ZN5folly15throw_exceptionISt12out_of_rangeJRA19_KcEEEvDpOT0_(ptr noundef nonnull align 1 dereferenceable(19) %0) #11 comdat {
  %2 = alloca ptr, align 8
  store ptr %0, ptr %2, align 8, !tbaa !12
  %3 = load ptr, ptr %2, align 8, !tbaa !12
  %4 = getelementptr inbounds [19 x i8], ptr %3, i64 0, i64 0
  call void @_ZN5folly6detail16throw_exception_ISt12out_of_rangeJPKcEEEvDpT0_(ptr noundef %4) #36
  unreachable
}

; Function Attrs: mustprogress uwtable
define internal void @_ZN5folly4json12_GLOBAL__N_15Input12storeCurrentEv(ptr noundef nonnull align 8 dereferenceable(36) %0) #0 align 2 {
  %2 = alloca ptr, align 8
  store ptr %0, ptr %2, align 8, !tbaa !594
  %3 = load ptr, ptr %2, align 8
  %4 = getelementptr inbounds nuw %"struct.folly::json::(anonymous namespace)::Input", ptr %3, i32 0, i32 0
  %5 = call noundef zeroext i1 @_ZNK5folly5RangeIPKcE5emptyEv(ptr noundef nonnull align 8 dereferenceable(16) %4)
  br i1 %5, label %6, label %7

6:                                                ; preds = %1
  br label %12

7:                                                ; preds = %1
  %8 = getelementptr inbounds nuw %"struct.folly::json::(anonymous namespace)::Input", ptr %3, i32 0, i32 0
  %9 = call noundef nonnull align 1 dereferenceable(1) ptr @_ZN5folly5RangeIPKcE5frontEv(ptr noundef nonnull align 8 dereferenceable(16) %8)
  %10 = load i8, ptr %9, align 1, !tbaa !14
  %11 = sext i8 %10 to i32
  br label %12

12:                                               ; preds = %7, %6
  %13 = phi i32 [ -1, %6 ], [ %11, %7 ]
  %14 = getelementptr inbounds nuw %"struct.folly::json::(anonymous namespace)::Input", ptr %3, i32 0, i32 3
  store i32 %13, ptr %14, align 4, !tbaa !603
  ret void
}

; Function Attrs: mustprogress uwtable
define linkonce_odr void @_ZN5folly5RangeIPKcE7advanceEm(ptr noundef nonnull align 8 dereferenceable(16) %0, i64 noundef %1) #0 comdat align 2 {
  %3 = alloca ptr, align 8
  %4 = alloca i64, align 8
  store ptr %0, ptr %3, align 8, !tbaa !17
  store i64 %1, ptr %4, align 8, !tbaa !15
  %5 = load ptr, ptr %3, align 8
  %6 = load i64, ptr %4, align 8, !tbaa !15
  %7 = call noundef i64 @_ZNK5folly5RangeIPKcE4sizeEv(ptr noundef nonnull align 8 dereferenceable(16) %5)
  %8 = icmp ugt i64 %6, %7
  %9 = zext i1 %8 to i64
  %10 = call i64 @llvm.expect.i64(i64 %9, i64 0)
  %11 = icmp ne i64 %10, 0
  br i1 %11, label %12, label %13

12:                                               ; preds = %2
  call void @_ZN5folly15throw_exceptionISt12out_of_rangeJRA19_KcEEEvDpOT0_(ptr noundef nonnull align 1 dereferenceable(19) @.str.52) #35
  unreachable

13:                                               ; preds = %2
  %14 = load i64, ptr %4, align 8, !tbaa !15
  %15 = getelementptr inbounds nuw %"class.folly::Range", ptr %5, i32 0, i32 0
  %16 = load ptr, ptr %15, align 8, !tbaa !24
  %17 = getelementptr inbounds nuw i8, ptr %16, i64 %14
  store ptr %17, ptr %15, align 8, !tbaa !24
  ret void
}

; Function Attrs: mustprogress nounwind uwtable
define linkonce_odr noundef nonnull align 1 dereferenceable(1) ptr @_ZN5folly5RangeIPKcEixEm(ptr noundef nonnull align 8 dereferenceable(16) %0, i64 noundef %1) #3 comdat align 2 {
  %3 = alloca ptr, align 8
  %4 = alloca i64, align 8
  store ptr %0, ptr %3, align 8, !tbaa !17
  store i64 %1, ptr %4, align 8, !tbaa !15
  %5 = load ptr, ptr %3, align 8
  %6 = getelementptr inbounds nuw %"class.folly::Range", ptr %5, i32 0, i32 0
  %7 = load ptr, ptr %6, align 8, !tbaa !24
  %8 = load i64, ptr %4, align 8, !tbaa !15
  %9 = getelementptr inbounds nuw i8, ptr %7, i64 %8
  ret ptr %9
}

; Function Attrs: mustprogress nounwind uwtable
define linkonce_odr noundef i64 @_ZNK5folly5RangeIPKcE4sizeEv(ptr noundef nonnull align 8 dereferenceable(16) %0) #3 comdat align 2 {
  %2 = alloca ptr, align 8
  store ptr %0, ptr %2, align 8, !tbaa !17
  %3 = load ptr, ptr %2, align 8
  %4 = getelementptr inbounds nuw %"class.folly::Range", ptr %3, i32 0, i32 1
  %5 = load ptr, ptr %4, align 8, !tbaa !26
  %6 = getelementptr inbounds nuw %"class.folly::Range", ptr %3, i32 0, i32 0
  %7 = load ptr, ptr %6, align 8, !tbaa !24
  %8 = ptrtoint ptr %5 to i64
  %9 = ptrtoint ptr %7 to i64
  %10 = sub i64 %8, %9
  ret i64 %10
}

; Function Attrs: mustprogress uwtable
define internal void @_ZN5folly4json12_GLOBAL__N_15Input14skipWhitespaceEv(ptr noundef nonnull align 8 dereferenceable(36) %0) #0 align 2 {
  %2 = alloca ptr, align 8
  %3 = alloca i32, align 4
  store ptr %0, ptr %2, align 8, !tbaa !594
  %4 = load ptr, ptr %2, align 8
  call void @llvm.lifetime.start.p0(i64 4, ptr %3) #33
  store i32 0, ptr %3, align 4, !tbaa !33
  br label %5

5:                                                ; preds = %62, %40, %1
  br label %6

6:                                                ; preds = %5
  br label %7

7:                                                ; preds = %23, %6
  %8 = load i32, ptr %3, align 4, !tbaa !33
  %9 = zext i32 %8 to i64
  %10 = getelementptr inbounds nuw %"struct.folly::json::(anonymous namespace)::Input", ptr %4, i32 0, i32 0
  %11 = call noundef i64 @_ZNK5folly5RangeIPKcE4sizeEv(ptr noundef nonnull align 8 dereferenceable(16) %10)
  %12 = icmp ult i64 %9, %11
  br i1 %12, label %13, label %21

13:                                               ; preds = %7
  %14 = getelementptr inbounds nuw %"struct.folly::json::(anonymous namespace)::Input", ptr %4, i32 0, i32 0
  %15 = load i32, ptr %3, align 4, !tbaa !33
  %16 = zext i32 %15 to i64
  %17 = call noundef nonnull align 1 dereferenceable(1) ptr @_ZN5folly5RangeIPKcEixEm(ptr noundef nonnull align 8 dereferenceable(16) %14, i64 noundef %16)
  %18 = load i8, ptr %17, align 1, !tbaa !14
  %19 = sext i8 %18 to i32
  %20 = icmp eq i32 %19, 32
  br label %21

21:                                               ; preds = %13, %7
  %22 = phi i1 [ false, %7 ], [ %20, %13 ]
  br i1 %22, label %23, label %26

23:                                               ; preds = %21
  %24 = load i32, ptr %3, align 4, !tbaa !33
  %25 = add i32 %24, 1
  store i32 %25, ptr %3, align 4, !tbaa !33
  br label %7, !llvm.loop !601

26:                                               ; preds = %21
  %27 = load i32, ptr %3, align 4, !tbaa !33
  %28 = zext i32 %27 to i64
  %29 = getelementptr inbounds nuw %"struct.folly::json::(anonymous namespace)::Input", ptr %4, i32 0, i32 0
  %30 = call noundef i64 @_ZNK5folly5RangeIPKcE4sizeEv(ptr noundef nonnull align 8 dereferenceable(16) %29)
  %31 = icmp ult i64 %28, %30
  br i1 %31, label %32, label %66

32:                                               ; preds = %26
  %33 = getelementptr inbounds nuw %"struct.folly::json::(anonymous namespace)::Input", ptr %4, i32 0, i32 0
  %34 = load i32, ptr %3, align 4, !tbaa !33
  %35 = zext i32 %34 to i64
  %36 = call noundef nonnull align 1 dereferenceable(1) ptr @_ZN5folly5RangeIPKcEixEm(ptr noundef nonnull align 8 dereferenceable(16) %33, i64 noundef %35)
  %37 = load i8, ptr %36, align 1, !tbaa !14
  %38 = sext i8 %37 to i32
  %39 = icmp eq i32 %38, 10
  br i1 %39, label %40, label %46

40:                                               ; preds = %32
  %41 = load i32, ptr %3, align 4, !tbaa !33
  %42 = add i32 %41, 1
  store i32 %42, ptr %3, align 4, !tbaa !33
  %43 = getelementptr inbounds nuw %"struct.folly::json::(anonymous namespace)::Input", ptr %4, i32 0, i32 2
  %44 = load i32, ptr %43, align 8, !tbaa !596
  %45 = add i32 %44, 1
  store i32 %45, ptr %43, align 8, !tbaa !596
  br label %5, !llvm.loop !602

46:                                               ; preds = %32
  %47 = getelementptr inbounds nuw %"struct.folly::json::(anonymous namespace)::Input", ptr %4, i32 0, i32 0
  %48 = load i32, ptr %3, align 4, !tbaa !33
  %49 = zext i32 %48 to i64
  %50 = call noundef nonnull align 1 dereferenceable(1) ptr @_ZN5folly5RangeIPKcEixEm(ptr noundef nonnull align 8 dereferenceable(16) %47, i64 noundef %49)
  %51 = load i8, ptr %50, align 1, !tbaa !14
  %52 = sext i8 %51 to i32
  %53 = icmp eq i32 %52, 9
  br i1 %53, label %62, label %54

54:                                               ; preds = %46
  %55 = getelementptr inbounds nuw %"struct.folly::json::(anonymous namespace)::Input", ptr %4, i32 0, i32 0
  %56 = load i32, ptr %3, align 4, !tbaa !33
  %57 = zext i32 %56 to i64
  %58 = call noundef nonnull align 1 dereferenceable(1) ptr @_ZN5folly5RangeIPKcEixEm(ptr noundef nonnull align 8 dereferenceable(16) %55, i64 noundef %57)
  %59 = load i8, ptr %58, align 1, !tbaa !14
  %60 = sext i8 %59 to i32
  %61 = icmp eq i32 %60, 13
  br i1 %61, label %62, label %65

62:                                               ; preds = %54, %46
  %63 = load i32, ptr %3, align 4, !tbaa !33
  %64 = add i32 %63, 1
  store i32 %64, ptr %3, align 4, !tbaa !33
  br label %5, !llvm.loop !602

65:                                               ; preds = %54
  br label %66

66:                                               ; preds = %65, %26
  br label %67

67:                                               ; preds = %66
  %68 = getelementptr inbounds nuw %"struct.folly::json::(anonymous namespace)::Input", ptr %4, i32 0, i32 0
  %69 = load i32, ptr %3, align 4, !tbaa !33
  %70 = zext i32 %69 to i64
  call void @_ZN5folly5RangeIPKcE7advanceEm(ptr noundef nonnull align 8 dereferenceable(16) %68, i64 noundef %70)
  call void @_ZN5folly4json12_GLOBAL__N_15Input12storeCurrentEv(ptr noundef nonnull align 8 dereferenceable(36) %4)
  call void @llvm.lifetime.end.p0(i64 4, ptr %3) #33
  ret void
}