; Function Attrs: mustprogress uwtable
define internal fastcc void @_ZN5folly4json12_GLOBAL__N_15Input14skipWhitespaceEv(ptr noundef nonnull align 8 captures(none) dereferenceable(36) %0) unnamed_addr #3 align 2 {
  %2 = getelementptr inbounds nuw i8, ptr %0, i64 8
  %3 = load ptr, ptr %2, align 8, !tbaa !325
  %4 = load ptr, ptr %0, align 8, !tbaa !326
  %5 = ptrtoint ptr %3 to i64
  %6 = ptrtoint ptr %4 to i64
  %7 = sub i64 %5, %6
  %.not = icmp eq ptr %3, %4
  br i1 %.not, label %_ZN5folly5RangeIPKcE7advanceEm.exit, label %.lr.ph.lr.ph

.lr.ph.lr.ph:                                     ; preds = %1
  %8 = getelementptr inbounds nuw i8, ptr %0, i64 24
  %.promoted = load i32, ptr %8, align 8
  br label %.lr.ph

.lr.ph:                                           ; preds = %.lr.ph.lr.ph, %.backedge
  %9 = phi i32 [ %.promoted, %.lr.ph.lr.ph ], [ %21, %.backedge ]
  %10 = phi i64 [ 0, %.lr.ph.lr.ph ], [ %22, %.backedge ]
  %.030 = phi i32 [ 0, %.lr.ph.lr.ph ], [ %.0.be, %.backedge ]
  br label %11

11:                                               ; preds = %.lr.ph, %15
  %12 = phi i64 [ %10, %.lr.ph ], [ %17, %15 ]
  %.121 = phi i32 [ %.030, %.lr.ph ], [ %16, %15 ]
  %13 = getelementptr inbounds nuw i8, ptr %4, i64 %12
  %14 = load i8, ptr %13, align 1, !tbaa !7
  switch i8 %14, label %.critedge [
    i8 32, label %15
    i8 10, label %19
    i8 9, label %.backedge
    i8 13, label %.backedge
  ]

15:                                               ; preds = %11
  %16 = add i32 %.121, 1
  %17 = zext i32 %16 to i64
  %18 = icmp ugt i64 %7, %17
  br i1 %18, label %11, label %.critedge, !llvm.loop !327

19:                                               ; preds = %11
  %20 = add i32 %9, 1
  store i32 %20, ptr %8, align 8, !tbaa !318
  br label %.backedge

.backedge:                                        ; preds = %11, %11, %19
  %21 = phi i32 [ %20, %19 ], [ %9, %11 ], [ %9, %11 ]
  %.0.be = add i32 %.121, 1
  %22 = zext i32 %.0.be to i64
  %23 = icmp ugt i64 %7, %22
  br i1 %23, label %.lr.ph, label %.critedge, !llvm.loop !328

.critedge:                                        ; preds = %.backedge, %11, %15
  %24 = phi i64 [ %12, %11 ], [ %17, %15 ], [ %22, %.backedge ]
  %25 = icmp ult i64 %7, %24
  br i1 %25, label %26, label %_ZN5folly5RangeIPKcE7advanceEm.exit, !prof !329

26:                                               ; preds = %.critedge
  tail call void @_ZN5folly6detail16throw_exception_ISt12out_of_rangeJPKcEEEvDpT0_(ptr noundef nonnull @.str.52) #7
  unreachable

_ZN5folly5RangeIPKcE7advanceEm.exit:              ; preds = %1, %.critedge
  %27 = phi i64 [ %24, %.critedge ], [ 0, %1 ]
  %28 = getelementptr inbounds nuw i8, ptr %4, i64 %27
  store ptr %28, ptr %0, align 8, !tbaa !326
  %29 = icmp eq ptr %28, %3
  br i1 %29, label %_ZN5folly4json12_GLOBAL__N_15Input12storeCurrentEv.exit, label %30

30:                                               ; preds = %_ZN5folly5RangeIPKcE7advanceEm.exit
  %31 = load i8, ptr %28, align 1, !tbaa !7
  %32 = sext i8 %31 to i32
  br label %_ZN5folly4json12_GLOBAL__N_15Input12storeCurrentEv.exit

_ZN5folly4json12_GLOBAL__N_15Input12storeCurrentEv.exit: ; preds = %_ZN5folly5RangeIPKcE7advanceEm.exit, %30
  %33 = phi i32 [ %32, %30 ], [ -1, %_ZN5folly5RangeIPKcE7advanceEm.exit ]
  %34 = getelementptr inbounds nuw i8, ptr %0, i64 28
  store i32 %33, ptr %34, align 4, !tbaa !322
  ret void
}